; Function Attrs: mustprogress nofree norecurse nosync nounwind willreturn memory(argmem: readwrite) uwtable
define internal void @NoneUnfilter_C(ptr nocapture readnone %0, ptr noundef readonly %1, ptr noundef writeonly %2, i32 noundef %3) #2 {
  %.not = icmp eq ptr %2, %1
  br i1 %.not, label %7, label %5

5:                                                ; preds = %4
  %6 = sext i32 %3 to i64
  tail call void @llvm.memcpy.p0.p0.i64(ptr align 1 %2, ptr align 1 %1, i64 %6, i1 false)
  br label %7

7:                                                ; preds = %5, %4
  ret void
}